; Function Attrs: nounwind uwtable
define internal range(i32 -2147483648, 2) i32 @out_utf8(i64 noundef %0, ptr noundef captures(none) %1) #0 {
  %3 = tail call i32 @UTF8_putc(ptr noundef null, i32 noundef -1, i64 noundef %0) #6
  %4 = icmp slt i32 %3, 1
  br i1 %4, label %8, label %5

5:                                                ; preds = %2
  %6 = load i32, ptr %1, align 4, !tbaa !7
  %7 = add nsw i32 %6, %3
  store i32 %7, ptr %1, align 4, !tbaa !7
  br label %8

8:                                                ; preds = %2, %5
  %.0 = phi i32 [ 1, %5 ], [ %3, %2 ]
  ret i32 %.0
}